; Function Attrs: mustprogress uwtable
define void @_ZN6casadi8LinsolQr8finalizeEv(ptr noundef nonnull align 8 dereferenceable(272) %0) unnamed_addr #4 align 2 {
  %2 = getelementptr inbounds i8, ptr %0, i64 176
  %3 = tail call noundef i64 @_ZNK6casadi8Sparsity3nnzEv(ptr noundef nonnull align 8 dereferenceable(8) %2)
  %4 = getelementptr inbounds i8, ptr %0, i64 232
  %5 = tail call noundef i64 @_ZNK6casadi8Sparsity3nnzEv(ptr noundef nonnull align 8 dereferenceable(8) %4)
  %6 = add nsw i64 %5, %3
  %7 = getelementptr inbounds i8, ptr %0, i64 240
  %8 = tail call noundef i64 @_ZNK6casadi8Sparsity3nnzEv(ptr noundef nonnull align 8 dereferenceable(8) %7)
  %9 = add nsw i64 %6, %8
  %10 = tail call noundef i64 @_ZNK6casadi8Sparsity5size2Ev(ptr noundef nonnull align 8 dereferenceable(8) %2)
  %11 = add nsw i64 %9, %10
  %12 = getelementptr inbounds i8, ptr %0, i64 264
  store i64 %11, ptr %12, align 8
  tail call void @_ZN6casadi13ProtoFunction8finalizeEv(ptr noundef nonnull align 8 dereferenceable(168) %0)
  ret void
}